target datalayout = "e-m:e-p270:32:32-p271:32:32-p272:64:64-i64:64-i128:128-f80:128-n8:16:32:64-S128"
target triple = "x86_64-pc-linux-gnu"

%struct._zend_array = type { %struct._zend_refcounted_h, %union.anon.1, i32, %union.anon.2, i32, i32, i32, i32, i64, ptr }
%struct._zend_refcounted_h = type { i32, %union.anon.0 }
%union.anon.0 = type { i32 }
%union.anon.1 = type { i32 }
%union.anon.2 = type { ptr }
%struct.zend_type = type { ptr, i32 }
%struct.zend_type_list = type { i32, [1 x %struct.zend_type] }
%struct._zend_string = type { %struct._zend_refcounted_h, i64, i64, [1 x i8] }
%struct._zend_class_entry = type { i8, ptr, %union.anon, i32, i32, i32, i32, ptr, ptr, ptr, %struct._zend_array, %struct._zend_array, %struct._zend_array, ptr, ptr, ptr, ptr, ptr, ptr, ptr, ptr, ptr, ptr, ptr, ptr, ptr, ptr, ptr, ptr, ptr, ptr, ptr, %union.anon.3, ptr, ptr, ptr, ptr, i32, i32, i32, i32, %union.anon.4, ptr, ptr, ptr, ptr, i32, ptr, ptr, %union.anon.5 }
%union.anon = type { ptr }
%union.anon.3 = type { ptr }
%union.anon.4 = type { ptr }
%union.anon.5 = type { %struct.anon.6 }
%struct.anon.6 = type { ptr, i32, i32 }

@zend_known_strings = external global ptr, align 8

; Function Attrs: nounwind uwtable
define internal ptr @resolve_class_name(ptr noundef %0, ptr noundef %1) #0 {
  %3 = alloca ptr, align 8
  %4 = alloca ptr, align 8
  %5 = alloca ptr, align 8
  store ptr %0, ptr %4, align 8, !tbaa !8
  store ptr %1, ptr %5, align 8, !tbaa !19
  %6 = load ptr, ptr %4, align 8, !tbaa !8
  %7 = icmp ne ptr %6, null
  call void @llvm.assume(i1 %7)
  %8 = load ptr, ptr %5, align 8, !tbaa !19
  %9 = getelementptr inbounds nuw %struct._zend_string, ptr %8, i32 0, i32 2
  %10 = load i64, ptr %9, align 8, !tbaa !23
  %11 = load ptr, ptr @zend_known_strings, align 8, !tbaa !209
  %12 = getelementptr inbounds ptr, ptr %11, i64 62
  %13 = load ptr, ptr %12, align 8, !tbaa !19
  %14 = getelementptr inbounds nuw %struct._zend_string, ptr %13, i32 0, i32 2
  %15 = load i64, ptr %14, align 8, !tbaa !23
  %16 = icmp eq i64 %10, %15
  br i1 %16, label %17, label %57

17:                                               ; preds = %2
  %18 = load ptr, ptr %5, align 8, !tbaa !19
  %19 = getelementptr inbounds nuw %struct._zend_string, ptr %18, i32 0, i32 3
  %20 = getelementptr inbounds [1 x i8], ptr %19, i64 0, i64 0
  %21 = load ptr, ptr %5, align 8, !tbaa !19
  %22 = getelementptr inbounds nuw %struct._zend_string, ptr %21, i32 0, i32 2
  %23 = load i64, ptr %22, align 8, !tbaa !23
  %24 = load ptr, ptr @zend_known_strings, align 8, !tbaa !209
  %25 = getelementptr inbounds ptr, ptr %24, i64 62
  %26 = load ptr, ptr %25, align 8, !tbaa !19
  %27 = getelementptr inbounds nuw %struct._zend_string, ptr %26, i32 0, i32 3
  %28 = getelementptr inbounds [1 x i8], ptr %27, i64 0, i64 0
  %29 = load ptr, ptr @zend_known_strings, align 8, !tbaa !209
  %30 = getelementptr inbounds ptr, ptr %29, i64 62
  %31 = load ptr, ptr %30, align 8, !tbaa !19
  %32 = getelementptr inbounds nuw %struct._zend_string, ptr %31, i32 0, i32 2
  %33 = load i64, ptr %32, align 8, !tbaa !23
  %34 = call i32 @zend_binary_strcasecmp(ptr noundef %20, i64 noundef %23, ptr noundef %28, i64 noundef %33)
  %35 = icmp ne i32 %34, 0
  br i1 %35, label %57, label %36

36:                                               ; preds = %17
  %37 = load ptr, ptr %4, align 8, !tbaa !8
  %38 = getelementptr inbounds nuw %struct._zend_class_entry, ptr %37, i32 0, i32 2
  %39 = load ptr, ptr %38, align 8, !tbaa !46
  %40 = icmp ne ptr %39, null
  br i1 %40, label %41, label %57

41:                                               ; preds = %36
  %42 = load ptr, ptr %4, align 8, !tbaa !8
  %43 = getelementptr inbounds nuw %struct._zend_class_entry, ptr %42, i32 0, i32 4
  %44 = load i32, ptr %43, align 4, !tbaa !80
  %45 = and i32 %44, 131072
  %46 = icmp ne i32 %45, 0
  br i1 %46, label %47, label %53

47:                                               ; preds = %41
  %48 = load ptr, ptr %4, align 8, !tbaa !8
  %49 = getelementptr inbounds nuw %struct._zend_class_entry, ptr %48, i32 0, i32 2
  %50 = load ptr, ptr %49, align 8, !tbaa !46
  %51 = getelementptr inbounds nuw %struct._zend_class_entry, ptr %50, i32 0, i32 1
  %52 = load ptr, ptr %51, align 8, !tbaa !70
  store ptr %52, ptr %3, align 8
  br label %92

53:                                               ; preds = %41
  %54 = load ptr, ptr %4, align 8, !tbaa !8
  %55 = getelementptr inbounds nuw %struct._zend_class_entry, ptr %54, i32 0, i32 2
  %56 = load ptr, ptr %55, align 8, !tbaa !46
  store ptr %56, ptr %3, align 8
  br label %92

57:                                               ; preds = %36, %17, %2
  %58 = load ptr, ptr %5, align 8, !tbaa !19
  %59 = getelementptr inbounds nuw %struct._zend_string, ptr %58, i32 0, i32 2
  %60 = load i64, ptr %59, align 8, !tbaa !23
  %61 = load ptr, ptr @zend_known_strings, align 8, !tbaa !209
  %62 = getelementptr inbounds ptr, ptr %61, i64 61
  %63 = load ptr, ptr %62, align 8, !tbaa !19
  %64 = getelementptr inbounds nuw %struct._zend_string, ptr %63, i32 0, i32 2
  %65 = load i64, ptr %64, align 8, !tbaa !23
  %66 = icmp eq i64 %60, %65
  br i1 %66, label %67, label %90

67:                                               ; preds = %57
  %68 = load ptr, ptr %5, align 8, !tbaa !19
  %69 = getelementptr inbounds nuw %struct._zend_string, ptr %68, i32 0, i32 3
  %70 = getelementptr inbounds [1 x i8], ptr %69, i64 0, i64 0
  %71 = load ptr, ptr %5, align 8, !tbaa !19
  %72 = getelementptr inbounds nuw %struct._zend_string, ptr %71, i32 0, i32 2
  %73 = load i64, ptr %72, align 8, !tbaa !23
  %74 = load ptr, ptr @zend_known_strings, align 8, !tbaa !209
  %75 = getelementptr inbounds ptr, ptr %74, i64 61
  %76 = load ptr, ptr %75, align 8, !tbaa !19
  %77 = getelementptr inbounds nuw %struct._zend_string, ptr %76, i32 0, i32 3
  %78 = getelementptr inbounds [1 x i8], ptr %77, i64 0, i64 0
  %79 = load ptr, ptr @zend_known_strings, align 8, !tbaa !209
  %80 = getelementptr inbounds ptr, ptr %79, i64 61
  %81 = load ptr, ptr %80, align 8, !tbaa !19
  %82 = getelementptr inbounds nuw %struct._zend_string, ptr %81, i32 0, i32 2
  %83 = load i64, ptr %82, align 8, !tbaa !23
  %84 = call i32 @zend_binary_strcasecmp(ptr noundef %70, i64 noundef %73, ptr noundef %78, i64 noundef %83)
  %85 = icmp ne i32 %84, 0
  br i1 %85, label %90, label %86

86:                                               ; preds = %67
  %87 = load ptr, ptr %4, align 8, !tbaa !8
  %88 = getelementptr inbounds nuw %struct._zend_class_entry, ptr %87, i32 0, i32 1
  %89 = load ptr, ptr %88, align 8, !tbaa !70
  store ptr %89, ptr %3, align 8
  br label %92

90:                                               ; preds = %67, %57
  %91 = load ptr, ptr %5, align 8, !tbaa !19
  store ptr %91, ptr %3, align 8
  br label %92

92:                                               ; preds = %90, %86, %53, %47
  %93 = load ptr, ptr %3, align 8
  ret ptr %93
}

; Function Attrs: nounwind uwtable
define internal void @register_unresolved_classes(ptr noundef %0, ptr %1, i32 %2) #0 {
  %4 = alloca %struct.zend_type, align 8
  %5 = alloca ptr, align 8
  %6 = alloca ptr, align 8
  %7 = alloca ptr, align 8
  %8 = alloca ptr, align 8
  %9 = alloca ptr, align 8
  %10 = alloca ptr, align 8
  %11 = getelementptr inbounds nuw { ptr, i32 }, ptr %4, i32 0, i32 0
  store ptr %1, ptr %11, align 8
  %12 = getelementptr inbounds nuw { ptr, i32 }, ptr %4, i32 0, i32 1
  store i32 %2, ptr %12, align 8
  store ptr %0, ptr %5, align 8, !tbaa !8
  call void @llvm.lifetime.start.p0(i64 8, ptr %6) #19
  br label %13

13:                                               ; preds = %3
  call void @llvm.lifetime.start.p0(i64 8, ptr %7) #19
  call void @llvm.lifetime.start.p0(i64 8, ptr %8) #19
  %14 = getelementptr inbounds nuw %struct.zend_type, ptr %4, i32 0, i32 1
  %15 = load i32, ptr %14, align 8, !tbaa !11
  %16 = and i32 %15, 4194304
  %17 = icmp ne i32 %16, 0
  br i1 %17, label %18, label %30

18:                                               ; preds = %13
  call void @llvm.lifetime.start.p0(i64 8, ptr %9) #19
  %19 = getelementptr inbounds nuw %struct.zend_type, ptr %4, i32 0, i32 0
  %20 = load ptr, ptr %19, align 8, !tbaa !15
  store ptr %20, ptr %9, align 8, !tbaa !16
  %21 = load ptr, ptr %9, align 8, !tbaa !16
  %22 = getelementptr inbounds nuw %struct.zend_type_list, ptr %21, i32 0, i32 1
  %23 = getelementptr inbounds [1 x %struct.zend_type], ptr %22, i64 0, i64 0
  store ptr %23, ptr %7, align 8, !tbaa !16
  %24 = load ptr, ptr %7, align 8, !tbaa !16
  %25 = load ptr, ptr %9, align 8, !tbaa !16
  %26 = getelementptr inbounds nuw %struct.zend_type_list, ptr %25, i32 0, i32 0
  %27 = load i32, ptr %26, align 8, !tbaa !17
  %28 = zext i32 %27 to i64
  %29 = getelementptr inbounds nuw %struct.zend_type, ptr %24, i64 %28
  store ptr %29, ptr %8, align 8, !tbaa !16
  call void @llvm.lifetime.end.p0(i64 8, ptr %9) #19
  br label %33

30:                                               ; preds = %13
  store ptr %4, ptr %7, align 8, !tbaa !16
  %31 = load ptr, ptr %7, align 8, !tbaa !16
  %32 = getelementptr inbounds %struct.zend_type, ptr %31, i64 1
  store ptr %32, ptr %8, align 8, !tbaa !16
  br label %33

33:                                               ; preds = %30, %18
  br label %34

34:                                               ; preds = %64, %33
  %35 = load ptr, ptr %7, align 8, !tbaa !16
  store ptr %35, ptr %6, align 8, !tbaa !16
  %36 = load ptr, ptr %6, align 8, !tbaa !16
  %37 = getelementptr inbounds nuw %struct.zend_type, ptr %36, i32 0, i32 1
  %38 = load i32, ptr %37, align 8, !tbaa !11
  %39 = and i32 %38, 4194304
  %40 = icmp ne i32 %39, 0
  br i1 %40, label %41, label %48

41:                                               ; preds = %34
  %42 = load ptr, ptr %5, align 8, !tbaa !8
  %43 = load ptr, ptr %6, align 8, !tbaa !16
  %44 = getelementptr inbounds nuw { ptr, i32 }, ptr %43, i32 0, i32 0
  %45 = load ptr, ptr %44, align 8
  %46 = getelementptr inbounds nuw { ptr, i32 }, ptr %43, i32 0, i32 1
  %47 = load i32, ptr %46, align 8
  call void @register_unresolved_classes(ptr noundef %42, ptr %45, i32 %47)
  br label %64

48:                                               ; preds = %34
  %49 = load ptr, ptr %6, align 8, !tbaa !16
  %50 = getelementptr inbounds nuw %struct.zend_type, ptr %49, i32 0, i32 1
  %51 = load i32, ptr %50, align 8, !tbaa !11
  %52 = and i32 %51, 16777216
  %53 = icmp ne i32 %52, 0
  br i1 %53, label %54, label %63

54:                                               ; preds = %48
  call void @llvm.lifetime.start.p0(i64 8, ptr %10) #19
  %55 = load ptr, ptr %5, align 8, !tbaa !8
  %56 = load ptr, ptr %6, align 8, !tbaa !16
  %57 = getelementptr inbounds nuw %struct.zend_type, ptr %56, i32 0, i32 0
  %58 = load ptr, ptr %57, align 8, !tbaa !15
  %59 = call ptr @resolve_class_name(ptr noundef %55, ptr noundef %58)
  store ptr %59, ptr %10, align 8, !tbaa !19
  %60 = load ptr, ptr %5, align 8, !tbaa !8
  %61 = load ptr, ptr %10, align 8, !tbaa !19
  %62 = call ptr @lookup_class_ex(ptr noundef %60, ptr noundef %61, i1 noundef zeroext true)
  call void @llvm.lifetime.end.p0(i64 8, ptr %10) #19
  br label %63

63:                                               ; preds = %54, %48
  br label %64

64:                                               ; preds = %63, %41
  %65 = load ptr, ptr %7, align 8, !tbaa !16
  %66 = getelementptr inbounds nuw %struct.zend_type, ptr %65, i32 1
  store ptr %66, ptr %7, align 8, !tbaa !16
  %67 = load ptr, ptr %8, align 8, !tbaa !16
  %68 = icmp ult ptr %66, %67
  br i1 %68, label %34, label %69

69:                                               ; preds = %64
  call void @llvm.lifetime.end.p0(i64 8, ptr %8) #19
  call void @llvm.lifetime.end.p0(i64 8, ptr %7) #19
  br label %70

70:                                               ; preds = %69
  br label %71

71:                                               ; preds = %70
  call void @llvm.lifetime.end.p0(i64 8, ptr %6) #19
  ret void
}