; Function Attrs: nounwind uwtable
define internal fastcc void @register_unresolved_classes(ptr noundef captures(address_is_null) %0, ptr %1, i32 %2) unnamed_addr #2 {
  %4 = alloca %struct.zend_type, align 8
  store ptr %1, ptr %4, align 8
  %5 = getelementptr inbounds nuw i8, ptr %4, i64 8
  store i32 %2, ptr %5, align 8
  %6 = and i32 %2, 4194304
  %.not = icmp eq i32 %6, 0
  br i1 %.not, label %12, label %7

7:                                                ; preds = %3
  %8 = getelementptr inbounds nuw i8, ptr %1, i64 8
  %9 = load i32, ptr %1, align 8, !tbaa !4
  %10 = zext i32 %9 to i64
  %11 = getelementptr inbounds nuw %struct.zend_type, ptr %8, i64 %10
  br label %14

12:                                               ; preds = %3
  %13 = getelementptr inbounds nuw i8, ptr %4, i64 16
  br label %14

14:                                               ; preds = %12, %7
  %.015 = phi ptr [ %11, %7 ], [ %13, %12 ]
  %.0 = phi ptr [ %8, %7 ], [ %4, %12 ]
  %15 = icmp ne ptr %0, null
  %16 = getelementptr inbounds nuw i8, ptr %0, i64 16
  %17 = getelementptr inbounds nuw i8, ptr %0, i64 28
  br label %18

18:                                               ; preds = %60, %14
  %.1 = phi ptr [ %.0, %14 ], [ %61, %60 ]
  %19 = getelementptr inbounds nuw i8, ptr %.1, i64 8
  %20 = load i32, ptr %19, align 8, !tbaa !9
  %21 = and i32 %20, 4194304
  %.not17 = icmp eq i32 %21, 0
  br i1 %.not17, label %24, label %22

22:                                               ; preds = %18
  %23 = load ptr, ptr %.1, align 8
  call fastcc void @register_unresolved_classes(ptr noundef %0, ptr %23, i32 %20)
  br label %60

24:                                               ; preds = %18
  %25 = and i32 %20, 16777216
  %.not18 = icmp eq i32 %25, 0
  br i1 %.not18, label %60, label %26

26:                                               ; preds = %24
  %27 = load ptr, ptr %.1, align 8, !tbaa !12
  call void @llvm.assume(i1 %15)
  %28 = getelementptr inbounds nuw i8, ptr %27, i64 16
  %29 = load i64, ptr %28, align 8, !tbaa !13
  %30 = load ptr, ptr @zend_known_strings, align 8, !tbaa !17
  %31 = getelementptr inbounds nuw i8, ptr %30, i64 496
  %32 = load ptr, ptr %31, align 8, !tbaa !19
  %33 = getelementptr inbounds nuw i8, ptr %32, i64 16
  %34 = load i64, ptr %33, align 8, !tbaa !13
  %35 = icmp eq i64 %29, %34
  br i1 %35, label %36, label %45

36:                                               ; preds = %26
  %37 = getelementptr inbounds nuw i8, ptr %27, i64 24
  %38 = getelementptr inbounds nuw i8, ptr %32, i64 24
  %39 = call i32 @zend_binary_strcasecmp(ptr noundef nonnull %37, i64 noundef %29, ptr noundef nonnull %38, i64 noundef %29) #17
  %.not.i = icmp eq i32 %39, 0
  br i1 %.not.i, label %40, label %45

40:                                               ; preds = %36
  %41 = load ptr, ptr %16, align 8, !tbaa !21
  %.not19.i = icmp eq ptr %41, null
  br i1 %.not19.i, label %45, label %42

42:                                               ; preds = %40
  %43 = load i32, ptr %17, align 4, !tbaa !22
  %44 = and i32 %43, 131072
  %.not20.i = icmp eq i32 %44, 0
  br i1 %.not20.i, label %resolve_class_name.exit, label %.sink.split.i

45:                                               ; preds = %40, %36, %26
  %46 = load i64, ptr %28, align 8, !tbaa !13
  %47 = load ptr, ptr @zend_known_strings, align 8, !tbaa !17
  %48 = getelementptr inbounds nuw i8, ptr %47, i64 488
  %49 = load ptr, ptr %48, align 8, !tbaa !19
  %50 = getelementptr inbounds nuw i8, ptr %49, i64 16
  %51 = load i64, ptr %50, align 8, !tbaa !13
  %52 = icmp eq i64 %46, %51
  br i1 %52, label %53, label %resolve_class_name.exit

53:                                               ; preds = %45
  %54 = getelementptr inbounds nuw i8, ptr %27, i64 24
  %55 = getelementptr inbounds nuw i8, ptr %49, i64 24
  %56 = call i32 @zend_binary_strcasecmp(ptr noundef nonnull %54, i64 noundef %46, ptr noundef nonnull %55, i64 noundef %46) #17
  %.not21.i = icmp eq i32 %56, 0
  br i1 %.not21.i, label %.sink.split.i, label %resolve_class_name.exit

.sink.split.i:                                    ; preds = %53, %42
  %.sink22.i = phi ptr [ %41, %42 ], [ %0, %53 ]
  %57 = getelementptr inbounds nuw i8, ptr %.sink22.i, i64 8
  %58 = load ptr, ptr %57, align 8, !tbaa !37
  br label %resolve_class_name.exit

resolve_class_name.exit:                          ; preds = %42, %45, %53, %.sink.split.i
  %.0.i = phi ptr [ %41, %42 ], [ %27, %53 ], [ %27, %45 ], [ %58, %.sink.split.i ]
  %59 = call fastcc ptr @lookup_class_ex(ptr noundef nonnull %0, ptr noundef %.0.i, i1 noundef zeroext true)
  br label %60

60:                                               ; preds = %24, %resolve_class_name.exit, %22
  %61 = getelementptr inbounds nuw i8, ptr %.1, i64 16
  %62 = icmp ult ptr %61, %.015
  br i1 %62, label %18, label %63

63:                                               ; preds = %60
  ret void
}